; Function Attrs: nounwind sspstrong uwtable
define internal range(i32 -2, 1) i32 @blkdebug_debug_resume(ptr noundef readonly captures(none) %bs, ptr noundef readonly captures(none) %tag) #0 {
glib_autoptr_cleanup_QemuLockable.exit:
  %opaque = getelementptr inbounds nuw i8, ptr %bs, i64 24
  %0 = load ptr, ptr %opaque, align 8
  %lock = getelementptr inbounds nuw i8, ptr %0, i64 488
  %1 = load atomic i64, ptr @qemu_mutex_lock_func monotonic, align 8
  %2 = inttoptr i64 %1 to ptr
  tail call void %2(ptr noundef nonnull %lock, ptr noundef nonnull @.str.53, i32 noundef 122) #13
  %call4 = tail call fastcc i32 @resume_req_by_tag(ptr noundef %0, ptr noundef %tag, i1 noundef zeroext false)
  tail call void @qemu_mutex_unlock_impl(ptr noundef nonnull %lock, ptr noundef nonnull @.str.53, i32 noundef 132) #13
  ret i32 %call4
}